target datalayout = "e-m:e-p270:32:32-p271:32:32-p272:64:64-i64:64-i128:128-f80:128-n8:16:32:64-S128"
target triple = "x86_64-pc-linux-gnu"

%struct.List = type { i32, i32, i32, ptr, [0 x %union.ListCell] }
%union.ListCell = type { ptr }
%struct.Expr = type { i32 }
%struct.Node = type { i32 }
%struct.split_pathtarget_context = type { ptr, ptr, ptr, ptr, ptr, ptr, i32, i32 }
%struct.FuncExpr = type { %struct.Expr, i32, i32, i8, i8, i32, i32, i32, ptr, i32 }
%struct.OpExpr = type { %struct.Expr, i32, i32, i32, i8, i32, i32, ptr, i32 }
%struct.split_pathtarget_item = type { ptr, i32 }

; Function Attrs: inlinehint nounwind uwtable
define internal ptr @list_nth_cell(ptr noundef %0, i32 noundef %1) #4 {
  %3 = alloca ptr, align 8
  %4 = alloca i32, align 4
  store ptr %0, ptr %3, align 8
  store i32 %1, ptr %4, align 4
  %5 = load ptr, ptr %3, align 8
  %6 = getelementptr inbounds nuw %struct.List, ptr %5, i32 0, i32 3
  %7 = load ptr, ptr %6, align 8
  %8 = load i32, ptr %4, align 4
  %9 = sext i32 %8 to i64
  %10 = getelementptr inbounds %union.ListCell, ptr %7, i64 %9
  ret ptr %10
}

; Function Attrs: inlinehint nounwind uwtable
define internal i32 @list_length(ptr noundef %0) #4 {
  %2 = alloca ptr, align 8
  store ptr %0, ptr %2, align 8
  %3 = load ptr, ptr %2, align 8
  %4 = icmp ne ptr %3, null
  br i1 %4, label %5, label %9

5:                                                ; preds = %1
  %6 = load ptr, ptr %2, align 8
  %7 = getelementptr inbounds nuw %struct.List, ptr %6, i32 0, i32 1
  %8 = load i32, ptr %7, align 4
  br label %10

9:                                                ; preds = %1
  br label %10

10:                                               ; preds = %9, %5
  %11 = phi i32 [ %8, %5 ], [ 0, %9 ]
  ret i32 %11
}

; Function Attrs: nounwind uwtable
define internal zeroext i1 @split_pathtarget_walker(ptr noundef %0, ptr noundef %1) #0 {
  %3 = alloca i1, align 1
  %4 = alloca ptr, align 8
  %5 = alloca ptr, align 8
  %6 = alloca ptr, align 8
  %7 = alloca ptr, align 8
  %8 = alloca ptr, align 8
  %9 = alloca ptr, align 8
  %10 = alloca ptr, align 8
  %11 = alloca i32, align 4
  %12 = alloca i32, align 4
  %13 = alloca ptr, align 8
  store ptr %0, ptr %4, align 8
  store ptr %1, ptr %5, align 8
  %14 = load ptr, ptr %4, align 8
  %15 = icmp eq ptr %14, null
  br i1 %15, label %16, label %17

16:                                               ; preds = %2
  store i1 false, ptr %3, align 1
  br label %221

17:                                               ; preds = %2
  %18 = load ptr, ptr %5, align 8
  %19 = getelementptr inbounds nuw %struct.split_pathtarget_context, ptr %18, i32 0, i32 0
  %20 = load ptr, ptr %19, align 8
  %21 = load ptr, ptr %4, align 8
  %22 = call zeroext i1 @list_member(ptr noundef %20, ptr noundef %21)
  br i1 %22, label %23, label %40

23:                                               ; preds = %17
  call void @llvm.lifetime.start.p0(i64 8, ptr %6) #7
  %24 = call ptr @palloc(i64 noundef 16)
  store ptr %24, ptr %6, align 8
  %25 = load ptr, ptr %4, align 8
  %26 = load ptr, ptr %6, align 8
  %27 = getelementptr inbounds nuw %struct.split_pathtarget_item, ptr %26, i32 0, i32 0
  store ptr %25, ptr %27, align 8
  %28 = load ptr, ptr %5, align 8
  %29 = getelementptr inbounds nuw %struct.split_pathtarget_context, ptr %28, i32 0, i32 7
  %30 = load i32, ptr %29, align 4
  %31 = load ptr, ptr %6, align 8
  %32 = getelementptr inbounds nuw %struct.split_pathtarget_item, ptr %31, i32 0, i32 1
  store i32 %30, ptr %32, align 8
  %33 = load ptr, ptr %5, align 8
  %34 = getelementptr inbounds nuw %struct.split_pathtarget_context, ptr %33, i32 0, i32 4
  %35 = load ptr, ptr %34, align 8
  %36 = load ptr, ptr %6, align 8
  %37 = call ptr @lappend(ptr noundef %35, ptr noundef %36)
  %38 = load ptr, ptr %5, align 8
  %39 = getelementptr inbounds nuw %struct.split_pathtarget_context, ptr %38, i32 0, i32 4
  store ptr %37, ptr %39, align 8
  store i1 false, ptr %3, align 1
  call void @llvm.lifetime.end.p0(i64 8, ptr %6) #7
  br label %221

40:                                               ; preds = %17
  %41 = load ptr, ptr %4, align 8
  %42 = getelementptr inbounds nuw %struct.Node, ptr %41, i32 0, i32 0
  %43 = load i32, ptr %42, align 4
  %44 = icmp eq i32 %43, 6
  br i1 %44, label %65, label %45

45:                                               ; preds = %40
  %46 = load ptr, ptr %4, align 8
  %47 = getelementptr inbounds nuw %struct.Node, ptr %46, i32 0, i32 0
  %48 = load i32, ptr %47, align 4
  %49 = icmp eq i32 %48, 318
  br i1 %49, label %65, label %50

50:                                               ; preds = %45
  %51 = load ptr, ptr %4, align 8
  %52 = getelementptr inbounds nuw %struct.Node, ptr %51, i32 0, i32 0
  %53 = load i32, ptr %52, align 4
  %54 = icmp eq i32 %53, 9
  br i1 %54, label %65, label %55

55:                                               ; preds = %50
  %56 = load ptr, ptr %4, align 8
  %57 = getelementptr inbounds nuw %struct.Node, ptr %56, i32 0, i32 0
  %58 = load i32, ptr %57, align 4
  %59 = icmp eq i32 %58, 10
  br i1 %59, label %65, label %60

60:                                               ; preds = %55
  %61 = load ptr, ptr %4, align 8
  %62 = getelementptr inbounds nuw %struct.Node, ptr %61, i32 0, i32 0
  %63 = load i32, ptr %62, align 4
  %64 = icmp eq i32 %63, 11
  br i1 %64, label %65, label %82

65:                                               ; preds = %60, %55, %50, %45, %40
  call void @llvm.lifetime.start.p0(i64 8, ptr %7) #7
  %66 = call ptr @palloc(i64 noundef 16)
  store ptr %66, ptr %7, align 8
  %67 = load ptr, ptr %4, align 8
  %68 = load ptr, ptr %7, align 8
  %69 = getelementptr inbounds nuw %struct.split_pathtarget_item, ptr %68, i32 0, i32 0
  store ptr %67, ptr %69, align 8
  %70 = load ptr, ptr %5, align 8
  %71 = getelementptr inbounds nuw %struct.split_pathtarget_context, ptr %70, i32 0, i32 7
  %72 = load i32, ptr %71, align 4
  %73 = load ptr, ptr %7, align 8
  %74 = getelementptr inbounds nuw %struct.split_pathtarget_item, ptr %73, i32 0, i32 1
  store i32 %72, ptr %74, align 8
  %75 = load ptr, ptr %5, align 8
  %76 = getelementptr inbounds nuw %struct.split_pathtarget_context, ptr %75, i32 0, i32 4
  %77 = load ptr, ptr %76, align 8
  %78 = load ptr, ptr %7, align 8
  %79 = call ptr @lappend(ptr noundef %77, ptr noundef %78)
  %80 = load ptr, ptr %5, align 8
  %81 = getelementptr inbounds nuw %struct.split_pathtarget_context, ptr %80, i32 0, i32 4
  store ptr %79, ptr %81, align 8
  store i1 false, ptr %3, align 1
  call void @llvm.lifetime.end.p0(i64 8, ptr %7) #7
  br label %221

82:                                               ; preds = %60
  %83 = load ptr, ptr %4, align 8
  %84 = getelementptr inbounds nuw %struct.Node, ptr %83, i32 0, i32 0
  %85 = load i32, ptr %84, align 4
  %86 = icmp eq i32 %85, 15
  br i1 %86, label %87, label %92

87:                                               ; preds = %82
  %88 = load ptr, ptr %4, align 8
  %89 = getelementptr inbounds nuw %struct.FuncExpr, ptr %88, i32 0, i32 3
  %90 = load i8, ptr %89, align 4, !range !7, !noundef !8
  %91 = trunc i8 %90 to i1
  br i1 %91, label %102, label %92

92:                                               ; preds = %87, %82
  %93 = load ptr, ptr %4, align 8
  %94 = getelementptr inbounds nuw %struct.Node, ptr %93, i32 0, i32 0
  %95 = load i32, ptr %94, align 4
  %96 = icmp eq i32 %95, 17
  br i1 %96, label %97, label %215

97:                                               ; preds = %92
  %98 = load ptr, ptr %4, align 8
  %99 = getelementptr inbounds nuw %struct.OpExpr, ptr %98, i32 0, i32 4
  %100 = load i8, ptr %99, align 8, !range !7, !noundef !8
  %101 = trunc i8 %100 to i1
  br i1 %101, label %102, label %215

102:                                              ; preds = %97, %87
  call void @llvm.lifetime.start.p0(i64 8, ptr %8) #7
  %103 = call ptr @palloc(i64 noundef 16)
  store ptr %103, ptr %8, align 8
  call void @llvm.lifetime.start.p0(i64 8, ptr %9) #7
  %104 = load ptr, ptr %5, align 8
  %105 = getelementptr inbounds nuw %struct.split_pathtarget_context, ptr %104, i32 0, i32 4
  %106 = load ptr, ptr %105, align 8
  store ptr %106, ptr %9, align 8
  call void @llvm.lifetime.start.p0(i64 8, ptr %10) #7
  %107 = load ptr, ptr %5, align 8
  %108 = getelementptr inbounds nuw %struct.split_pathtarget_context, ptr %107, i32 0, i32 5
  %109 = load ptr, ptr %108, align 8
  store ptr %109, ptr %10, align 8
  call void @llvm.lifetime.start.p0(i64 4, ptr %11) #7
  %110 = load ptr, ptr %5, align 8
  %111 = getelementptr inbounds nuw %struct.split_pathtarget_context, ptr %110, i32 0, i32 6
  %112 = load i32, ptr %111, align 8
  store i32 %112, ptr %11, align 4
  call void @llvm.lifetime.start.p0(i64 4, ptr %12) #7
  call void @llvm.lifetime.start.p0(i64 8, ptr %13) #7
  %113 = load ptr, ptr %4, align 8
  %114 = load ptr, ptr %8, align 8
  %115 = getelementptr inbounds nuw %struct.split_pathtarget_item, ptr %114, i32 0, i32 0
  store ptr %113, ptr %115, align 8
  %116 = load ptr, ptr %5, align 8
  %117 = getelementptr inbounds nuw %struct.split_pathtarget_context, ptr %116, i32 0, i32 7
  %118 = load i32, ptr %117, align 4
  %119 = load ptr, ptr %8, align 8
  %120 = getelementptr inbounds nuw %struct.split_pathtarget_item, ptr %119, i32 0, i32 1
  store i32 %118, ptr %120, align 8
  %121 = load ptr, ptr %5, align 8
  %122 = getelementptr inbounds nuw %struct.split_pathtarget_context, ptr %121, i32 0, i32 4
  store ptr null, ptr %122, align 8
  %123 = load ptr, ptr %5, align 8
  %124 = getelementptr inbounds nuw %struct.split_pathtarget_context, ptr %123, i32 0, i32 5
  store ptr null, ptr %124, align 8
  %125 = load ptr, ptr %5, align 8
  %126 = getelementptr inbounds nuw %struct.split_pathtarget_context, ptr %125, i32 0, i32 6
  store i32 0, ptr %126, align 8
  %127 = load ptr, ptr %5, align 8
  %128 = getelementptr inbounds nuw %struct.split_pathtarget_context, ptr %127, i32 0, i32 7
  store i32 0, ptr %128, align 4
  %129 = load ptr, ptr %4, align 8
  %130 = load ptr, ptr %5, align 8
  %131 = call zeroext i1 @expression_tree_walker_impl(ptr noundef %129, ptr noundef @split_pathtarget_walker, ptr noundef %130)
  %132 = load ptr, ptr %5, align 8
  %133 = getelementptr inbounds nuw %struct.split_pathtarget_context, ptr %132, i32 0, i32 6
  %134 = load i32, ptr %133, align 8
  %135 = add i32 %134, 1
  store i32 %135, ptr %12, align 4
  %136 = load i32, ptr %12, align 4
  %137 = load ptr, ptr %5, align 8
  %138 = getelementptr inbounds nuw %struct.split_pathtarget_context, ptr %137, i32 0, i32 1
  %139 = load ptr, ptr %138, align 8
  %140 = call i32 @list_length(ptr noundef %139)
  %141 = icmp sge i32 %136, %140
  br i1 %141, label %142, label %161

142:                                              ; preds = %102
  %143 = load ptr, ptr %5, align 8
  %144 = getelementptr inbounds nuw %struct.split_pathtarget_context, ptr %143, i32 0, i32 1
  %145 = load ptr, ptr %144, align 8
  %146 = call ptr @lappend(ptr noundef %145, ptr noundef null)
  %147 = load ptr, ptr %5, align 8
  %148 = getelementptr inbounds nuw %struct.split_pathtarget_context, ptr %147, i32 0, i32 1
  store ptr %146, ptr %148, align 8
  %149 = load ptr, ptr %5, align 8
  %150 = getelementptr inbounds nuw %struct.split_pathtarget_context, ptr %149, i32 0, i32 2
  %151 = load ptr, ptr %150, align 8
  %152 = call ptr @lappend(ptr noundef %151, ptr noundef null)
  %153 = load ptr, ptr %5, align 8
  %154 = getelementptr inbounds nuw %struct.split_pathtarget_context, ptr %153, i32 0, i32 2
  store ptr %152, ptr %154, align 8
  %155 = load ptr, ptr %5, align 8
  %156 = getelementptr inbounds nuw %struct.split_pathtarget_context, ptr %155, i32 0, i32 3
  %157 = load ptr, ptr %156, align 8
  %158 = call ptr @lappend(ptr noundef %157, ptr noundef null)
  %159 = load ptr, ptr %5, align 8
  %160 = getelementptr inbounds nuw %struct.split_pathtarget_context, ptr %159, i32 0, i32 3
  store ptr %158, ptr %160, align 8
  br label %161

161:                                              ; preds = %142, %102
  %162 = load ptr, ptr %5, align 8
  %163 = getelementptr inbounds nuw %struct.split_pathtarget_context, ptr %162, i32 0, i32 1
  %164 = load ptr, ptr %163, align 8
  %165 = load i32, ptr %12, align 4
  %166 = call ptr @list_nth_cell(ptr noundef %164, i32 noundef %165)
  store ptr %166, ptr %13, align 8
  %167 = load ptr, ptr %13, align 8
  %168 = load ptr, ptr %167, align 8
  %169 = load ptr, ptr %8, align 8
  %170 = call ptr @lappend(ptr noundef %168, ptr noundef %169)
  %171 = load ptr, ptr %13, align 8
  store ptr %170, ptr %171, align 8
  %172 = load ptr, ptr %5, align 8
  %173 = getelementptr inbounds nuw %struct.split_pathtarget_context, ptr %172, i32 0, i32 2
  %174 = load ptr, ptr %173, align 8
  %175 = load i32, ptr %12, align 4
  %176 = call ptr @list_nth_cell(ptr noundef %174, i32 noundef %175)
  store ptr %176, ptr %13, align 8
  %177 = load ptr, ptr %13, align 8
  %178 = load ptr, ptr %177, align 8
  %179 = load ptr, ptr %5, align 8
  %180 = getelementptr inbounds nuw %struct.split_pathtarget_context, ptr %179, i32 0, i32 4
  %181 = load ptr, ptr %180, align 8
  %182 = call ptr @list_concat(ptr noundef %178, ptr noundef %181)
  %183 = load ptr, ptr %13, align 8
  store ptr %182, ptr %183, align 8
  %184 = load ptr, ptr %5, align 8
  %185 = getelementptr inbounds nuw %struct.split_pathtarget_context, ptr %184, i32 0, i32 3
  %186 = load ptr, ptr %185, align 8
  %187 = load i32, ptr %12, align 4
  %188 = call ptr @list_nth_cell(ptr noundef %186, i32 noundef %187)
  store ptr %188, ptr %13, align 8
  %189 = load ptr, ptr %13, align 8
  %190 = load ptr, ptr %189, align 8
  %191 = load ptr, ptr %5, align 8
  %192 = getelementptr inbounds nuw %struct.split_pathtarget_context, ptr %191, i32 0, i32 5
  %193 = load ptr, ptr %192, align 8
  %194 = call ptr @list_concat(ptr noundef %190, ptr noundef %193)
  %195 = load ptr, ptr %13, align 8
  store ptr %194, ptr %195, align 8
  %196 = load ptr, ptr %9, align 8
  %197 = load ptr, ptr %5, align 8
  %198 = getelementptr inbounds nuw %struct.split_pathtarget_context, ptr %197, i32 0, i32 4
  store ptr %196, ptr %198, align 8
  %199 = load ptr, ptr %10, align 8
  %200 = load ptr, ptr %8, align 8
  %201 = call ptr @lappend(ptr noundef %199, ptr noundef %200)
  %202 = load ptr, ptr %5, align 8
  %203 = getelementptr inbounds nuw %struct.split_pathtarget_context, ptr %202, i32 0, i32 5
  store ptr %201, ptr %203, align 8
  %204 = load i32, ptr %11, align 4
  %205 = load i32, ptr %12, align 4
  %206 = icmp sgt i32 %204, %205
  br i1 %206, label %207, label %209

207:                                              ; preds = %161
  %208 = load i32, ptr %11, align 4
  br label %211

209:                                              ; preds = %161
  %210 = load i32, ptr %12, align 4
  br label %211

211:                                              ; preds = %209, %207
  %212 = phi i32 [ %208, %207 ], [ %210, %209 ]
  %213 = load ptr, ptr %5, align 8
  %214 = getelementptr inbounds nuw %struct.split_pathtarget_context, ptr %213, i32 0, i32 6
  store i32 %212, ptr %214, align 8
  store i1 false, ptr %3, align 1
  call void @llvm.lifetime.end.p0(i64 8, ptr %13) #7
  call void @llvm.lifetime.end.p0(i64 4, ptr %12) #7
  call void @llvm.lifetime.end.p0(i64 4, ptr %11) #7
  call void @llvm.lifetime.end.p0(i64 8, ptr %10) #7
  call void @llvm.lifetime.end.p0(i64 8, ptr %9) #7
  call void @llvm.lifetime.end.p0(i64 8, ptr %8) #7
  br label %221

215:                                              ; preds = %97, %92
  %216 = load ptr, ptr %5, align 8
  %217 = getelementptr inbounds nuw %struct.split_pathtarget_context, ptr %216, i32 0, i32 7
  store i32 0, ptr %217, align 4
  %218 = load ptr, ptr %4, align 8
  %219 = load ptr, ptr %5, align 8
  %220 = call zeroext i1 @expression_tree_walker_impl(ptr noundef %218, ptr noundef @split_pathtarget_walker, ptr noundef %219)
  store i1 %220, ptr %3, align 1
  br label %221

221:                                              ; preds = %215, %211, %65, %23, %16
  %222 = load i1, ptr %3, align 1
  ret i1 %222
}