; Function Attrs: nounwind uwtable
define internal zeroext i1 @split_pathtarget_walker(ptr noundef %0, ptr noundef %1) #0 {
  %3 = icmp eq ptr %0, null
  br i1 %3, label %86, label %4

4:                                                ; preds = %2
  %5 = load ptr, ptr %1, align 8
  %6 = tail call zeroext i1 @list_member(ptr noundef %5, ptr noundef nonnull %0) #10
  br i1 %6, label %7, label %15

7:                                                ; preds = %4
  %8 = tail call ptr @palloc(i64 noundef 16) #10
  store ptr %0, ptr %8, align 8
  %9 = getelementptr inbounds nuw i8, ptr %1, i64 52
  %10 = load i32, ptr %9, align 4
  %11 = getelementptr inbounds nuw i8, ptr %8, i64 8
  store i32 %10, ptr %11, align 8
  %12 = getelementptr inbounds nuw i8, ptr %1, i64 32
  %13 = load ptr, ptr %12, align 8
  %14 = tail call ptr @lappend(ptr noundef %13, ptr noundef nonnull %8) #10
  store ptr %14, ptr %12, align 8
  br label %86

15:                                               ; preds = %4
  %16 = load i32, ptr %0, align 4
  switch i32 %16, label %.thread [
    i32 6, label %17
    i32 318, label %17
    i32 9, label %17
    i32 10, label %17
    i32 11, label %17
    i32 15, label %25
    i32 17, label %29
  ]

17:                                               ; preds = %15, %15, %15, %15, %15
  %18 = tail call ptr @palloc(i64 noundef 16) #10
  store ptr %0, ptr %18, align 8
  %19 = getelementptr inbounds nuw i8, ptr %1, i64 52
  %20 = load i32, ptr %19, align 4
  %21 = getelementptr inbounds nuw i8, ptr %18, i64 8
  store i32 %20, ptr %21, align 8
  %22 = getelementptr inbounds nuw i8, ptr %1, i64 32
  %23 = load ptr, ptr %22, align 8
  %24 = tail call ptr @lappend(ptr noundef %23, ptr noundef nonnull %18) #10
  store ptr %24, ptr %22, align 8
  br label %86

25:                                               ; preds = %15
  %26 = getelementptr inbounds nuw i8, ptr %0, i64 12
  %27 = load i8, ptr %26, align 4, !range !4, !noundef !5
  %28 = trunc nuw i8 %27 to i1
  br i1 %28, label %33, label %.thread

29:                                               ; preds = %15
  %30 = getelementptr inbounds nuw i8, ptr %0, i64 16
  %31 = load i8, ptr %30, align 8, !range !4, !noundef !5
  %32 = trunc nuw i8 %31 to i1
  br i1 %32, label %33, label %.thread

33:                                               ; preds = %29, %25
  %34 = tail call ptr @palloc(i64 noundef 16) #10
  %35 = getelementptr inbounds nuw i8, ptr %1, i64 32
  %36 = load ptr, ptr %35, align 8
  %37 = getelementptr inbounds nuw i8, ptr %1, i64 40
  %38 = load ptr, ptr %37, align 8
  %39 = getelementptr inbounds nuw i8, ptr %1, i64 48
  %40 = load i32, ptr %39, align 8
  store ptr %0, ptr %34, align 8
  %41 = getelementptr inbounds nuw i8, ptr %1, i64 52
  %42 = load i32, ptr %41, align 4
  %43 = getelementptr inbounds nuw i8, ptr %34, i64 8
  store i32 %42, ptr %43, align 8
  tail call void @llvm.memset.p0.i64(ptr noundef nonnull align 8 dereferenceable(24) %35, i8 0, i64 24, i1 false)
  %44 = tail call zeroext i1 @expression_tree_walker_impl(ptr noundef nonnull %0, ptr noundef nonnull @split_pathtarget_walker, ptr noundef nonnull %1) #10
  %45 = load i32, ptr %39, align 8
  %46 = add i32 %45, 1
  %47 = getelementptr inbounds nuw i8, ptr %1, i64 8
  %48 = load ptr, ptr %47, align 8
  %.not.i = icmp eq ptr %48, null
  br i1 %.not.i, label %list_length.exit, label %49

49:                                               ; preds = %33
  %50 = getelementptr inbounds nuw i8, ptr %48, i64 4
  %51 = load i32, ptr %50, align 4
  br label %list_length.exit

list_length.exit:                                 ; preds = %33, %49
  %52 = phi i32 [ %51, %49 ], [ 0, %33 ]
  %.not = icmp slt i32 %46, %52
  br i1 %.not, label %61, label %53

53:                                               ; preds = %list_length.exit
  %54 = tail call ptr @lappend(ptr noundef %48, ptr noundef null) #10
  store ptr %54, ptr %47, align 8
  %55 = getelementptr inbounds nuw i8, ptr %1, i64 16
  %56 = load ptr, ptr %55, align 8
  %57 = tail call ptr @lappend(ptr noundef %56, ptr noundef null) #10
  store ptr %57, ptr %55, align 8
  %58 = getelementptr inbounds nuw i8, ptr %1, i64 24
  %59 = load ptr, ptr %58, align 8
  %60 = tail call ptr @lappend(ptr noundef %59, ptr noundef null) #10
  store ptr %60, ptr %58, align 8
  %.pre = load ptr, ptr %47, align 8
  br label %61

61:                                               ; preds = %53, %list_length.exit
  %62 = phi ptr [ %.pre, %53 ], [ %48, %list_length.exit ]
  %63 = getelementptr i8, ptr %62, i64 16
  %.val = load ptr, ptr %63, align 8
  %64 = sext i32 %46 to i64
  %65 = getelementptr inbounds %union.ListCell, ptr %.val, i64 %64
  %66 = load ptr, ptr %65, align 8
  %67 = tail call ptr @lappend(ptr noundef %66, ptr noundef nonnull %34) #10
  store ptr %67, ptr %65, align 8
  %68 = getelementptr inbounds nuw i8, ptr %1, i64 16
  %69 = load ptr, ptr %68, align 8
  %70 = getelementptr i8, ptr %69, i64 16
  %.val78 = load ptr, ptr %70, align 8
  %71 = getelementptr inbounds %union.ListCell, ptr %.val78, i64 %64
  %72 = load ptr, ptr %71, align 8
  %73 = load ptr, ptr %35, align 8
  %74 = tail call ptr @list_concat(ptr noundef %72, ptr noundef %73) #10
  store ptr %74, ptr %71, align 8
  %75 = getelementptr inbounds nuw i8, ptr %1, i64 24
  %76 = load ptr, ptr %75, align 8
  %77 = getelementptr i8, ptr %76, i64 16
  %.val79 = load ptr, ptr %77, align 8
  %78 = getelementptr inbounds %union.ListCell, ptr %.val79, i64 %64
  %79 = load ptr, ptr %78, align 8
  %80 = load ptr, ptr %37, align 8
  %81 = tail call ptr @list_concat(ptr noundef %79, ptr noundef %80) #10
  store ptr %81, ptr %78, align 8
  store ptr %36, ptr %35, align 8
  %82 = tail call ptr @lappend(ptr noundef %38, ptr noundef nonnull %34) #10
  store ptr %82, ptr %37, align 8
  %83 = tail call i32 @llvm.smax.i32(i32 %40, i32 %46)
  store i32 %83, ptr %39, align 8
  br label %86

.thread:                                          ; preds = %15, %25, %29
  %84 = getelementptr inbounds nuw i8, ptr %1, i64 52
  store i32 0, ptr %84, align 4
  %85 = tail call zeroext i1 @expression_tree_walker_impl(ptr noundef nonnull %0, ptr noundef nonnull @split_pathtarget_walker, ptr noundef nonnull %1) #10
  br label %86

86:                                               ; preds = %2, %.thread, %61, %17, %7
  %.0 = phi i1 [ false, %7 ], [ false, %17 ], [ false, %61 ], [ %85, %.thread ], [ false, %2 ]
  ret i1 %.0
}